target datalayout = "e-m:e-p270:32:32-p271:32:32-p272:64:64-i64:64-i128:128-f80:128-n8:16:32:64-S128"
target triple = "x86_64-pc-linux-gnu"

%class.Register = type { i32 }
%class.XMMRegister = type { i32 }
%class.KRegister = type { i32 }

@_type2aelembytes = external global [20 x i32], align 16

; Function Attrs: mustprogress nounwind uwtable
define linkonce_odr hidden noundef i32 @_Z15type2aelembytes9BasicTypeb(i8 noundef zeroext %0, i1 noundef zeroext %1) #1 comdat {
  %3 = alloca i8, align 1
  %4 = alloca i8, align 1
  store i8 %0, ptr %3, align 1
  %5 = zext i1 %1 to i8
  store i8 %5, ptr %4, align 1
  %6 = load i8, ptr %3, align 1
  %7 = zext i8 %6 to i64
  %8 = getelementptr inbounds [20 x i32], ptr @_type2aelembytes, i64 0, i64 %7
  %9 = load i32, ptr %8, align 4
  ret i32 %9
}

; Function Attrs: mustprogress nounwind uwtable
define hidden void @_ZN17C2_MacroAssembler32vector_count_trailing_zeros_evexE9BasicType11XMMRegisterS1_S1_S1_S1_S1_9KRegister8Registeri(ptr noundef nonnull align 8 dereferenceable(40) %0, i8 noundef zeroext %1, i32 %2, i32 %3, i32 %4, i32 %5, i32 %6, i32 %7, i32 %8, i32 %9, i32 noundef %10) #1 align 2 {
  %12 = alloca %class.XMMRegister, align 4
  %13 = alloca %class.XMMRegister, align 4
  %14 = alloca %class.XMMRegister, align 4
  %15 = alloca %class.XMMRegister, align 4
  %16 = alloca %class.XMMRegister, align 4
  %17 = alloca %class.XMMRegister, align 4
  %18 = alloca %class.KRegister, align 4
  %19 = alloca %class.Register, align 4
  %20 = alloca ptr, align 8
  %21 = alloca i8, align 1
  %22 = alloca i32, align 4
  %23 = alloca %class.XMMRegister, align 4
  %24 = alloca %class.XMMRegister, align 4
  %25 = alloca %class.XMMRegister, align 4
  %26 = alloca %class.XMMRegister, align 4
  %27 = alloca %class.XMMRegister, align 4
  %28 = alloca %class.XMMRegister, align 4
  %29 = alloca %class.XMMRegister, align 4
  %30 = alloca %class.XMMRegister, align 4
  %31 = alloca %class.XMMRegister, align 4
  %32 = alloca %class.XMMRegister, align 4
  %33 = alloca %class.XMMRegister, align 4
  %34 = alloca %class.XMMRegister, align 4
  %35 = alloca %class.XMMRegister, align 4
  %36 = alloca %class.XMMRegister, align 4
  %37 = alloca %class.KRegister, align 4
  %38 = alloca %class.Register, align 4
  %39 = alloca %class.XMMRegister, align 4
  %40 = alloca %class.Register, align 4
  %41 = alloca %class.XMMRegister, align 4
  %42 = alloca %class.XMMRegister, align 4
  %43 = alloca %class.XMMRegister, align 4
  %44 = getelementptr inbounds %class.XMMRegister, ptr %12, i32 0, i32 0
  store i32 %2, ptr %44, align 4
  %45 = getelementptr inbounds %class.XMMRegister, ptr %13, i32 0, i32 0
  store i32 %3, ptr %45, align 4
  %46 = getelementptr inbounds %class.XMMRegister, ptr %14, i32 0, i32 0
  store i32 %4, ptr %46, align 4
  %47 = getelementptr inbounds %class.XMMRegister, ptr %15, i32 0, i32 0
  store i32 %5, ptr %47, align 4
  %48 = getelementptr inbounds %class.XMMRegister, ptr %16, i32 0, i32 0
  store i32 %6, ptr %48, align 4
  %49 = getelementptr inbounds %class.XMMRegister, ptr %17, i32 0, i32 0
  store i32 %7, ptr %49, align 4
  %50 = getelementptr inbounds %class.KRegister, ptr %18, i32 0, i32 0
  store i32 %8, ptr %50, align 4
  %51 = getelementptr inbounds %class.Register, ptr %19, i32 0, i32 0
  store i32 %9, ptr %51, align 4
  store ptr %0, ptr %20, align 8
  store i8 %1, ptr %21, align 1
  store i32 %10, ptr %22, align 4
  %52 = load ptr, ptr %20, align 8
  call void @llvm.memcpy.p0.p0.i64(ptr align 4 %23, ptr align 4 %17, i64 4, i1 false)
  call void @llvm.memcpy.p0.p0.i64(ptr align 4 %24, ptr align 4 %17, i64 4, i1 false)
  call void @llvm.memcpy.p0.p0.i64(ptr align 4 %25, ptr align 4 %17, i64 4, i1 false)
  %53 = load i32, ptr %22, align 4
  %54 = getelementptr inbounds %class.XMMRegister, ptr %23, i32 0, i32 0
  %55 = load i32, ptr %54, align 4
  %56 = getelementptr inbounds %class.XMMRegister, ptr %24, i32 0, i32 0
  %57 = load i32, ptr %56, align 4
  %58 = getelementptr inbounds %class.XMMRegister, ptr %25, i32 0, i32 0
  %59 = load i32, ptr %58, align 4
  call void @_ZN9Assembler10vpternlogdE11XMMRegisteriS0_S0_i(ptr noundef nonnull align 8 dereferenceable(40) %52, i32 %55, i32 noundef 255, i32 %57, i32 %59, i32 noundef %53)
  %60 = load i8, ptr %21, align 1
  call void @llvm.memcpy.p0.p0.i64(ptr align 4 %26, ptr align 4 %17, i64 4, i1 false)
  call void @llvm.memcpy.p0.p0.i64(ptr align 4 %27, ptr align 4 %17, i64 4, i1 false)
  call void @llvm.memcpy.p0.p0.i64(ptr align 4 %28, ptr align 4 %13, i64 4, i1 false)
  %61 = load i32, ptr %22, align 4
  %62 = getelementptr inbounds %class.XMMRegister, ptr %26, i32 0, i32 0
  %63 = load i32, ptr %62, align 4
  %64 = getelementptr inbounds %class.XMMRegister, ptr %27, i32 0, i32 0
  %65 = load i32, ptr %64, align 4
  %66 = getelementptr inbounds %class.XMMRegister, ptr %28, i32 0, i32 0
  %67 = load i32, ptr %66, align 4
  call void @_ZN17C2_MacroAssembler5vpaddE9BasicType11XMMRegisterS1_S1_i(ptr noundef nonnull align 8 dereferenceable(40) %52, i8 noundef zeroext %60, i32 %63, i32 %65, i32 %67, i32 noundef %61)
  call void @llvm.memcpy.p0.p0.i64(ptr align 4 %29, ptr align 4 %17, i64 4, i1 false)
  call void @llvm.memcpy.p0.p0.i64(ptr align 4 %30, ptr align 4 %17, i64 4, i1 false)
  call void @llvm.memcpy.p0.p0.i64(ptr align 4 %31, ptr align 4 %13, i64 4, i1 false)
  %68 = load i32, ptr %22, align 4
  %69 = getelementptr inbounds %class.XMMRegister, ptr %29, i32 0, i32 0
  %70 = load i32, ptr %69, align 4
  %71 = getelementptr inbounds %class.XMMRegister, ptr %30, i32 0, i32 0
  %72 = load i32, ptr %71, align 4
  %73 = getelementptr inbounds %class.XMMRegister, ptr %31, i32 0, i32 0
  %74 = load i32, ptr %73, align 4
  call void @_ZN9Assembler10vpternlogdE11XMMRegisteriS0_S0_i(ptr noundef nonnull align 8 dereferenceable(40) %52, i32 %70, i32 noundef 64, i32 %72, i32 %74, i32 noundef %68)
  %75 = load i8, ptr %21, align 1
  call void @llvm.memcpy.p0.p0.i64(ptr align 4 %32, ptr align 4 %12, i64 4, i1 false)
  call void @llvm.memcpy.p0.p0.i64(ptr align 4 %33, ptr align 4 %17, i64 4, i1 false)
  call void @llvm.memcpy.p0.p0.i64(ptr align 4 %34, ptr align 4 %14, i64 4, i1 false)
  call void @llvm.memcpy.p0.p0.i64(ptr align 4 %35, ptr align 4 %15, i64 4, i1 false)
  call void @llvm.memcpy.p0.p0.i64(ptr align 4 %36, ptr align 4 %16, i64 4, i1 false)
  call void @llvm.memcpy.p0.p0.i64(ptr align 4 %37, ptr align 4 %18, i64 4, i1 false)
  call void @llvm.memcpy.p0.p0.i64(ptr align 4 %38, ptr align 4 %19, i64 4, i1 false)
  %76 = load i32, ptr %22, align 4
  %77 = getelementptr inbounds %class.XMMRegister, ptr %32, i32 0, i32 0
  %78 = load i32, ptr %77, align 4
  %79 = getelementptr inbounds %class.XMMRegister, ptr %33, i32 0, i32 0
  %80 = load i32, ptr %79, align 4
  %81 = getelementptr inbounds %class.XMMRegister, ptr %34, i32 0, i32 0
  %82 = load i32, ptr %81, align 4
  %83 = getelementptr inbounds %class.XMMRegister, ptr %35, i32 0, i32 0
  %84 = load i32, ptr %83, align 4
  %85 = getelementptr inbounds %class.XMMRegister, ptr %36, i32 0, i32 0
  %86 = load i32, ptr %85, align 4
  %87 = getelementptr inbounds %class.KRegister, ptr %37, i32 0, i32 0
  %88 = load i32, ptr %87, align 4
  %89 = getelementptr inbounds %class.Register, ptr %38, i32 0, i32 0
  %90 = load i32, ptr %89, align 4
  call void @_ZN17C2_MacroAssembler31vector_count_leading_zeros_evexE9BasicType11XMMRegisterS1_S1_S1_S1_9KRegister8Registerbi(ptr noundef nonnull align 8 dereferenceable(40) %52, i8 noundef zeroext %75, i32 %78, i32 %80, i32 %82, i32 %84, i32 %86, i32 %88, i32 %90, i1 noundef zeroext true, i32 noundef %76)
  %91 = load i8, ptr %21, align 1
  call void @llvm.memcpy.p0.p0.i64(ptr align 4 %39, ptr align 4 %17, i64 4, i1 false)
  %92 = load i8, ptr %21, align 1
  %93 = call noundef i32 @_Z15type2aelembytes9BasicTypeb(i8 noundef zeroext %92, i1 noundef zeroext false)
  %94 = mul nsw i32 8, %93
  call void @llvm.memcpy.p0.p0.i64(ptr align 4 %40, ptr align 4 %19, i64 4, i1 false)
  %95 = load i32, ptr %22, align 4
  %96 = getelementptr inbounds %class.XMMRegister, ptr %39, i32 0, i32 0
  %97 = load i32, ptr %96, align 4
  %98 = getelementptr inbounds %class.Register, ptr %40, i32 0, i32 0
  %99 = load i32, ptr %98, align 4
  call void @_ZN17C2_MacroAssembler10vbroadcastE9BasicType11XMMRegisteri8Registeri(ptr noundef nonnull align 8 dereferenceable(40) %52, i8 noundef zeroext %91, i32 %97, i32 noundef %94, i32 %99, i32 noundef %95)
  %100 = load i8, ptr %21, align 1
  call void @llvm.memcpy.p0.p0.i64(ptr align 4 %41, ptr align 4 %12, i64 4, i1 false)
  call void @llvm.memcpy.p0.p0.i64(ptr align 4 %42, ptr align 4 %17, i64 4, i1 false)
  call void @llvm.memcpy.p0.p0.i64(ptr align 4 %43, ptr align 4 %12, i64 4, i1 false)
  %101 = load i32, ptr %22, align 4
  %102 = getelementptr inbounds %class.XMMRegister, ptr %41, i32 0, i32 0
  %103 = load i32, ptr %102, align 4
  %104 = getelementptr inbounds %class.XMMRegister, ptr %42, i32 0, i32 0
  %105 = load i32, ptr %104, align 4
  %106 = getelementptr inbounds %class.XMMRegister, ptr %43, i32 0, i32 0
  %107 = load i32, ptr %106, align 4
  call void @_ZN17C2_MacroAssembler5vpsubE9BasicType11XMMRegisterS1_S1_i(ptr noundef nonnull align 8 dereferenceable(40) %52, i8 noundef zeroext %100, i32 %103, i32 %105, i32 %107, i32 noundef %101)
  ret void
}