; Function Attrs: mustprogress nounwind uwtable
define hidden void @_ZN17C2_MacroAssembler32vector_count_trailing_zeros_evexE9BasicType11XMMRegisterS1_S1_S1_S1_S1_9KRegister8Registeri(ptr noundef nonnull align 8 dereferenceable(40) %0, i8 noundef zeroext %1, i32 %2, i32 %3, i32 %4, i32 %5, i32 %6, i32 %7, i32 %8, i32 %9, i32 noundef %10) local_unnamed_addr #0 align 2 {
  tail call void @_ZN9Assembler10vpternlogdE11XMMRegisteriS0_S0_i(ptr noundef nonnull align 8 dereferenceable(40) %0, i32 %7, i32 noundef 255, i32 %7, i32 %7, i32 noundef %10) #11
  tail call void @_ZN17C2_MacroAssembler5vpaddE9BasicType11XMMRegisterS1_S1_i(ptr noundef nonnull align 8 dereferenceable(40) %0, i8 noundef zeroext %1, i32 %7, i32 %7, i32 %3, i32 noundef %10)
  tail call void @_ZN9Assembler10vpternlogdE11XMMRegisteriS0_S0_i(ptr noundef nonnull align 8 dereferenceable(40) %0, i32 %7, i32 noundef 64, i32 %7, i32 %3, i32 noundef %10) #11
  tail call void @_ZN17C2_MacroAssembler31vector_count_leading_zeros_evexE9BasicType11XMMRegisterS1_S1_S1_S1_9KRegister8Registerbi(ptr noundef nonnull align 8 dereferenceable(40) %0, i8 noundef zeroext %1, i32 %2, i32 %7, i32 %4, i32 %5, i32 %6, i32 %8, i32 %9, i1 noundef zeroext true, i32 noundef %10)
  %12 = zext i8 %1 to i64
  %13 = getelementptr inbounds [20 x i32], ptr @_type2aelembytes, i64 0, i64 %12
  %14 = load i32, ptr %13, align 4
  %15 = shl nsw i32 %14, 3
  tail call void @_ZN17C2_MacroAssembler10vbroadcastE9BasicType11XMMRegisteri8Registeri(ptr noundef nonnull align 8 dereferenceable(40) %0, i8 noundef zeroext %1, i32 %7, i32 noundef %15, i32 %9, i32 noundef %10)
  tail call void @_ZN17C2_MacroAssembler5vpsubE9BasicType11XMMRegisterS1_S1_i(ptr noundef nonnull align 8 dereferenceable(40) %0, i8 noundef zeroext %1, i32 %2, i32 %7, i32 %2, i32 noundef %10)
  ret void
}